target datalayout = "e-m:e-p270:32:32-p271:32:32-p272:64:64-i64:64-i128:128-f80:128-n8:16:32:64-S128"
target triple = "x86_64-pc-linux-gnu"

%struct._StringInfo = type { ptr, i32 }
%struct._SslDecryptSession = type { [48 x i8], [256 x i8], [32 x i8], [32 x i8], %struct._StringInfo, %struct._StringInfo, %struct._StringInfo, %struct._StringInfo, %struct._StringInfo, %struct._StringInfo, %struct._StringInfo, [24 x i8], %struct._StringInfo, [24 x i8], %struct._StringInfo, i32, ptr, ptr, ptr, ptr, ptr, ptr, %struct._StringInfo, %struct._StringInfo, %struct._SslSession, i8, %struct._StringInfo }
%struct._SslSession = type { i32, i32, i16, i8, [32 x i8], i8, i8, i32, i32, i32, %struct._StringInfo, i8, i8, [8 x i8], [8 x i8], [16 x i8], %struct._address, i32, i32, ptr, ptr, ptr, i32, i8, i32, i32, ptr, ptr, i8, i8, i8, i8, i8, [2 x i64], [2 x i64] }
%struct._address = type { i32, i32, ptr, ptr }

@proto_tls = internal global i32 0, align 4

; Function Attrs: null_pointer_is_valid sspstrong uwtable
define hidden ptr @tls_get_client_alpn(ptr noundef %0) #0 {
  %2 = alloca ptr, align 8
  %3 = alloca ptr, align 8
  %4 = alloca ptr, align 8
  %5 = alloca i32, align 4
  %6 = alloca ptr, align 8
  store ptr %0, ptr %3, align 8
  call void @llvm.lifetime.start.p0(i64 8, ptr %4) #18
  %7 = load ptr, ptr %3, align 8
  %8 = call ptr @find_conversation_pinfo(ptr noundef %7, i32 noundef 0)
  store ptr %8, ptr %4, align 8
  %9 = load ptr, ptr %4, align 8
  %10 = icmp ne ptr %9, null
  br i1 %10, label %12, label %11

11:                                               ; preds = %1
  store ptr null, ptr %2, align 8
  store i32 1, ptr %5, align 4
  br label %25

12:                                               ; preds = %1
  call void @llvm.lifetime.start.p0(i64 8, ptr %6) #18
  %13 = load ptr, ptr %4, align 8
  %14 = load i32, ptr @proto_tls, align 4
  %15 = call ptr @conversation_get_proto_data(ptr noundef %13, i32 noundef %14)
  store ptr %15, ptr %6, align 8
  %16 = load ptr, ptr %6, align 8
  %17 = icmp eq ptr %16, null
  br i1 %17, label %18, label %19

18:                                               ; preds = %12
  store ptr null, ptr %2, align 8
  store i32 1, ptr %5, align 4
  br label %24

19:                                               ; preds = %12
  %20 = load ptr, ptr %6, align 8
  %21 = getelementptr inbounds nuw %struct._SslDecryptSession, ptr %20, i32 0, i32 24
  %22 = getelementptr inbounds nuw %struct._SslSession, ptr %21, i32 0, i32 21
  %23 = load ptr, ptr %22, align 8
  store ptr %23, ptr %2, align 8
  store i32 1, ptr %5, align 4
  br label %24

24:                                               ; preds = %19, %18
  call void @llvm.lifetime.end.p0(i64 8, ptr %6) #18
  br label %25

25:                                               ; preds = %24, %11
  call void @llvm.lifetime.end.p0(i64 8, ptr %4) #18
  %26 = load ptr, ptr %2, align 8
  ret ptr %26
}