; Function Attrs: null_pointer_is_valid sspstrong uwtable
define hidden ptr @tls_get_client_alpn(ptr noundef %0) local_unnamed_addr #0 {
  %2 = tail call ptr @find_conversation_pinfo(ptr noundef %0, i32 noundef 0)
  %.not = icmp eq ptr %2, null
  br i1 %.not, label %10, label %3

3:                                                ; preds = %1
  %4 = load i32, ptr @proto_tls, align 4
  %5 = tail call ptr @conversation_get_proto_data(ptr noundef nonnull %2, i32 noundef %4)
  %6 = icmp eq ptr %5, null
  br i1 %6, label %10, label %7

7:                                                ; preds = %3
  %8 = getelementptr inbounds nuw i8, ptr %5, i64 816
  %9 = load ptr, ptr %8, align 8
  br label %10

10:                                               ; preds = %7, %3, %1
  %.0 = phi ptr [ null, %1 ], [ %9, %7 ], [ null, %3 ]
  ret ptr %.0
}